(lp0
(dp1
S'Susanna Capelouto and Catherine E. Shoichet'
p2
I1
sS'Moni Basu'
p3
I1
sS'Sarah Sirgany and Holly Yan'
p4
I1
sS'Z. Byron Wolf'
p5
I1
sS'Brian Walker and Merieme Arif'
p6
I1
sS'Mukhtar Ahmad and Adeel Raja'
p7
I1
sS'Yousuf Basil and Ben Brumfield'
p8
I1
sS'Scott Bronstein'
p9
I2
sS'Wilfred Chan'
p10
I1
sS'Greg Botelho and Ben Brumfield'
p11
I1
sS'Susanna Capelouto'
p12
I4
sS'Laura Smith-Spark'
p13
I34
sS'Wayne Lovell'
p14
I1
sS'Jay Parini'
p15
I1
sS'for CNN '
p16
I2
sS'John Defterios and Nicola Goulding'
p17
I1
sS'Arron Merat'
p18
I1
sS'Brandon Griggs'
p19
I3
sS'Holly Yan and Ben Brumfield'
p20
I1
sS'Tracey Hobbs and Monique Todd'
p21
I1
sS'Sania Farooqui and Tim Hume'
p22
I2
sS'Thom Patterson'
p23
I4
sS'Hilary Whiteman'
p24
I4
sS'Jeremy Diamond'
p25
I2
sS'Tim Hume'
p26
I5
sS'Matthew Knight'
p27
I1
sS'Ben Brumfield'
p28
I14
sS'Travel + Leisure Staff'
p29
I1
sS'Naomi Ng'
p30
I3
sS'Jason Hanna and Amanda Barnett'
p31
I1
sS'Mariano Castillo and Barbara Starr'
p32
I1
sS'Ben Wedeman and Kareem Khadder'
p33
I1
sS'Madison Park'
p34
I6
sS'Sandrine Amiel and Greg Botelho'
p35
I1
sS'Isa Soares'
p36
I1
sS'Steven Jiang'
p37
I8
sS'Mohammed Tawfeeq'
p38
I2
sS'Steve Almasy'
p39
I3
sS'Roseann Lake'
p40
I1
sS'Anna Therese Day'
p41
I1
sS'Ivan Watson'
p42
I5
sS'Julian E. Zelizer'
p43
I1
sS'Nicola Goulding and Jason Hanna'
p44
I1
sS'Katie Pisa'
p45
I1
sS'Michael Kofman'
p46
I1
sS'Peter Bergen'
p47
I3
sS'Katie McLaughlin'
p48
I1
sS'Joshua Berlinger and Ralph Ellis'
p49
I1
sS'Elwyn Lopez and Laura Smith-Spark'
p50
I1
sS'Sarah-Grace Mankarious'
p51
I1
sS'Gene Seymour'
p52
I1
sS'Richard Allen Greene'
p53
I1
sS'Tim Lister'
p54
I4
sS'Melodi Smith'
p55
I1
sS'Frederik Pleitgen'
p56
I1
sS'Phoebe  Parke '
p57
I1
sS'Kofi Annan'
p58
I1
sS'Euan McKirdy'
p59
I4
sS'Andrew Stevens'
p60
I1
sS'Marnie Hunter'
p61
I2
sS'Omar Nor'
p62
I3
sS'Nic Robertson and Alexander Felton'
p63
I1
sS'Mark Griffiths'
p64
I1
sS'Lillian Leposo'
p65
I1
sS'Nick Paton Walsh'
p66
I11
sS'Val Lauder'
p67
I1
sS'Paula Hancocks'
p68
I2
sS'Dana Ford and Jethro Mullen'
p69
I1
sS'Catherine E. Shoichet and Josh Levs'
p70
I1
sS'Hassan John and Greg Botelho'
p71
I1
sS'Susannah Cullinane and Teo Kermeliotis'
p72
I1
sS'Antonia Mortensen'
p73
I1
sS'CNN '
p74
I14
sS'Mark Johanson'
p75
I1
sS'Charlotte Lytton and Urmee Khan for CNN '
p76
I1
sS'Elise Labott'
p77
I3
sS'Paul Gittings'
p78
I1
sS'Richard Allen Greene and Susannah Cullinane'
p79
I1
sS'for CNN'
p80
I34
sS'Ben Brumfield and Mike Schwartz'
p81
I1
sS'Ben Wedeman and Michael Schwartz'
p82
I1
sS'Holly Yan and Karla Cripps'
p83
I1
sS'Barry Neild'
p84
I4
sS'Kevin Wang and Steven Jiang'
p85
I1
sS'Jethro Mullen and Richard Greene'
p86
I1
sS'Jethro Mullen and Saima Mohsin'
p87
I1
sS'Jethro Mullen and Brent Swails'
p88
I2
sS'Frida  Ghitis'
p89
I1
sS'Greg Botelho'
p90
I27
sS'David Gergen'
p91
I1
sS'Faith Karimi and Joe Sutton'
p92
I1
sS'Sophie Brown'
p93
I1
sS'David Molko'
p94
I2
sS'Todd Leopold'
p95
I3
sS'Brian Todd'
p96
I2
sS'Eliott C. McLaughlin'
p97
I8
sS'CNN Pentagon Correspondent'
p98
I1
sS'Barbie Latza Nadeau and Laura Smith-Spark'
p99
I1
sS'Paul Patrick Armstrong'
p100
I1
sS'Paula Newton'
p101
I3
sS'Karla Cripps'
p102
I1
sS'Meera Senthilingam'
p103
I3
sS'Mark Hertling'
p104
I1
sS'Laura Ly'
p105
I1
sS'Holly Yan and Brian Walker'
p106
I1
sS'James Masters'
p107
I2
sS'Margot Haddad and Lonzo Cook'
p108
I1
sS'Mark Morgenstein and Faith Karimi'
p109
I1
sS'Kyung Lah and Greg Botelho'
p110
I1
sS'Carol Costello'
p111
I1
sS'Ben Brumfield and Bharati Naik'
p112
I1
sS'Matthew Ponsford'
p113
I3
sS'Bryan Pirolli'
p114
I1
sS'Sally Kohn'
p115
I1
sS'Michael Pearson and Zahir Shah'
p116
I1
sS'Salma Abdelaziz'
p117
I4
sS'Ben Wedeman'
p118
I2
sS'Susannah Cullinane'
p119
I7
sS'Heidi Schlumpf'
p120
I1
sS'Masoud Popalzai and Laura Smith-Spark'
p121
I2
sS'Josh Levs and Livia Borghese'
p122
I1
sS'Deborah Feyerick'
p123
I3
sS'Patrick Oppmann'
p124
I1
sS'Jason Hanna and Kristina Sgueglia'
p125
I1
sS'Claudia Rebaza'
p126
I1
sS'Greg Botelho and Ray Sanchez'
p127
I1
sS'Chris Borg'
p128
I1
sS'Masoud Popalzai'
p129
I1
sS'Jung-eun Kim'
p130
I1
sS'Catherine E. Shoichet and Rafael Romo'
p131
I1
sS'Soni Methu'
p132
I3
sS'Christina Zdanowicz'
p133
I1
sS'Josh Levs and Catherine E. Shoichet'
p134
I1
sS'Jessica Ravitz'
p135
I1
sS'Harmeet Shah Singh'
p136
I3
sS'Abel Alvarado'
p137
I1
sS'Jen Christensen'
p138
I1
sS'Rooney Mara'
p139
I1
sS'Greg Botelho and Sophia Saifi'
p140
I1
sS'Mark Morgenstein and Saima Mohsin'
p141
I1
sS'CNN Chief Political Analyst'
p142
I1
sS'Marion Lory'
p143
I1
sS'Eric Bradner'
p144
I3
sS'Sheena McKenzie'
p145
I1
sS'Christiane Amanpour'
p146
I1
sS'Heather Kelly'
p147
I1
sS'for CNN and Laura Ma'
p148
I1
sS'Brent Swails and Diana Magnay'
p149
I1
sS'Vivian Kam and Wilfred Chan'
p150
I1
sS'Dean Obeidallah'
p151
I1
sS'Richard Greene'
p152
I3
sS'Slma Shelbayah'
p153
I1
sS' Paul Cruickshank and Tim Lister'
p154
I1
sS'Chuck Thompson'
p155
I2
sS'Les Abend'
p156
I1
sS'Tina Burnside and Holly Yan'
p157
I1
sS'Mohammed Tawfeeq and Jethro Mullen'
p158
I1
sS'Jethro Mullen and Yoonjung Seo'
p159
I1
sS'Bharati Naik and Josh Levs'
p160
I1
sS'Michael Schwartz and Laura Smith-Spark'
p161
I1
sS'Catherine E. Shoichet'
p162
I13
sS'Amanda Barnett and Jason Hanna'
p163
I1
sS'Nicola Goulding and Laura Smith-Spark'
p164
I1
sS'Jason Hanna and Jennifer Z. Deaton'
p165
I1
sS'Michael Schwartz and Greg Botelho'
p166
I1
sS'Mike Chinoy'
p167
I1
sS'Aminu Abubakar'
p168
I1
sS'Mariano Castillo'
p169
I10
sS'Will Ripley'
p170
I5
sS'Vicky Wong'
p171
I1
sS'Chris Pepper'
p172
I1
sS'Michael Martinez'
p173
I7
sS'Robyn Curnow'
p174
I1
sS'Nic Robertson'
p175
I3
sS'Saeed Ahmed and Leone Lakhani'
p176
I1
sS'Gayle Tzemach Lemmon'
p177
I1
sS'Agnes Poirier'
p178
I1
sS'Rene Marsh'
p179
I1
sS'Vivian Kam and Madison Park'
p180
I2
sS'Special to CNN'
p181
I1
sS'Faith Karimi'
p182
I9
sS'Laura Smith-Spark and Radina Gigova'
p183
I1
sS'Greg Botelho and Nic Robertson'
p184
I1
sS'Mark Bixler'
p185
I1
sS'Samantha Bresnahan'
p186
I1
sS'Claudia Rebaza and Catherine E. Shoichet'
p187
I1
sS'Alex Court'
p188
I1
sS'Omar Nor and Greg Botelho'
p189
I2
sS'Peter Shadbolt'
p190
I3
sS'Lucy Pawle and Susannah Cullinane'
p191
I1
sS'Jethro Mullen'
p192
I41
sS'Karen Smith'
p193
I1
sS'Daniel Burke'
p194
I4
sS'Drew Griffin'
p195
I1
sS'Special for CNN'
p196
I1
sS'Gabe LaMonica'
p197
I1
sS'Errol Louis'
p198
I1
sS'Matthew Knight and Olivia Yasukawa'
p199
I1
sS'Mohammed Tawfeeq and Susanna Capelouto'
p200
I1
sS'Laura Smith-Spark and Hada Messia'
p201
I1
sS'Robert Jobson'
p202
I1
sS'Nicola Goulding and Faith Karimi'
p203
I1
sS'Catherine E. Shoichet and Patrick Oppmann'
p204
I1
sS'Jason Hanna'
p205
I12
sS'Ravi Agrawal'
p206
I2
sS'Masoud Popalzai and Greg Botelho'
p207
I1
sS'Maggie Hiufu Wong'
p208
I5
sS'Andreas Preuss'
p209
I1
sS'CNN Senior Political Analyst'
p210
I1
sS'Naomi Ng for CNN'
p211
I1
sS'Emanuella Grinberg'
p212
I5
sS'Jim Sciutto'
p213
I2
sS'Bryony Jones'
p214
I1
sS'Sarah Duff for CNN'
p215
I1
sS'Jethro Mullen and Chieu Luu'
p216
I1
sS'Hassan John and Ben Brumfield'
p217
I1
sS'Atika Shubert'
p218
I2
sS'Zahir Shah Sherazi and Holly Yan'
p219
I1
sS'CNN Staff'
p220
I1
sS'Dawn Walton'
p221
I1
sS'Alanne Orjoux'
p222
I1
sS'Mallika Kapur and Jethro Mullen'
p223
I1
sS'Dean  Obeidallah '
p224
I1
sS'Fareed Zakaria'
p225
I2
sS'Matthew Hoye'
p226
I1
sS'Milena Veselinovic'
p227
I3
sS'David Dunn'
p228
I1
sS'Hakim Almasmari and Greg Botelho'
p229
I1
sS'Reza Aslan'
p230
I1
sS'Scott Hamilton'
p231
I1
sS'Erin Conway-Smith for CNN'
p232
I1
sS'Malavika Bhattacharya'
p233
I1
sS'Dana Ford'
p234
I6
sS'Sarah LeTrent'
p235
I1
sS'Katie Hunt'
p236
I4
sS'CNN Global Affairs Correspondent'
p237
I1
sS'Sophia Saifi and Greg Botelho'
p238
I1
sS'Matt Majendie'
p239
I1
sS'Greg Botelho and Laura Akhoun'
p240
I1
sS'Monica Sarkar'
p241
I2
sS'Jethro Mullen and Anna Coren'
p242
I1
sS'Allyssia Alleyne'
p243
I1
sS'Lisa Respers France'
p244
I2
sS'Al Goodman'
p245
I3
sS'Marc Hoeferlin and Florence Obondo'
p246
I1
sS'Elise Labott and Jason Hanna'
p247
I1
sS'Harmeet Shah Singh and Jethro Mullen'
p248
I3
sS'Raphael Sperry'
p249
I1
sS' Jim Sciutto and Ray Sanchez'
p250
I1
sS'Zahir Shah and Holly Yan'
p251
I1
sS'Hakim Almasmari'
p252
I2
sS'Kevin Conlon'
p253
I2
sS'Gloria Borger'
p254
I1
sS'Katia Hetter'
p255
I2
sS'Lauren Said-Moorhouse'
p256
I2
sS'Mairi Mackay and Eoghan Macguire'
p257
I1
sS'Emily Schneider'
p258
I1
sS'Hamdi Alkhshali and Kevin Conlon'
p259
I1
sS'Brian Walker'
p260
I1
sS'Stephen Collinson'
p261
I1
sS'Joe Johns'
p262
I1
sS'Paula Newton and Monique Todd'
p263
I1
sS'Hamdi Ulukaya'
p264
I1
sS'Nick Thompson'
p265
I7
sS'Kunal Sehgal'
p266
I1
sS'Greg Botelho and Vivian Kam'
p267
I1
sS'Sugam Pokharel'
p268
I1
sS' Arlene Samson Espiritu'
p269
I1
sS'Jennifer Chen'
p270
I1
sS'Lorenzo Ferrigno'
p271
I2
sS'Matthew Chance'
p272
I2
sS'Jordan Burchette'
p273
I1
sS'Sophia Saifi and Jethro Mullen'
p274
I1
sS'Aaron  David Miller'
p275
I1
sS'Ray Sanchez'
p276
I7
sS'and Jimmy Biblarz'
p277
I1
sS'Rick Noack'
p278
I1
sS'Greg Botelho and Laura Smith-Spark'
p279
I1
sS'Laura Smith-Spark and Sweelin Ong'
p280
I1
sS'Sheena  McKenzie'
p281
I3
sS'John Defterios'
p282
I1
sS'Elwyn Lopez and Susanna Capelouto'
p283
I1
sS'Elena Sandyrev and Jason Hanna'
p284
I1
sS'Emanuella Grinberg and Carma Hassan'
p285
I1
sS'Manesh Shrestha'
p286
I1
sS'Amanda Barnett'
p287
I1
sS'Daisy Carrington'
p288
I2
sS'Ralph Ellis and Melissa Gray'
p289
I1
sS'Elise Labott and Riham Shebl'
p290
I1
sS'Andrew Finkel'
p291
I1
sS'Ashley Fantz'
p292
I6
sS'Peggy Drexler'
p293
I1
sS'Greg Scoblete'
p294
I1
sS'Mick Krever'
p295
I1
sS'Saima Mohsin'
p296
I1
sS'Jake Wallis Simons'
p297
I1
sS'Saskya  Vandoorne'
p298
I1
sS'Brent Swails and Greg Botelho'
p299
I1
sS'Adeel Raja'
p300
I1
sS'CNN'
p301
I212
sS'Jung-eun Kim and Judy Kwon'
p302
I1
sS'Peter Taggart'
p303
I1
sS'Rafael Romo'
p304
I2
sS'Chieu Luu and Tim Hume'
p305
I1
sS'Elwyn Lopez'
p306
I1
sS'Sarah Leah Whitson'
p307
I1
sS'Holly Yan'
p308
I10
sS'Catherine E. Shoichet and Carma Hassan'
p309
I1
sS'Ralph Ellis'
p310
I1
sS'Barbara Starr'
p311
I4
sS'Katie Pisa and Tracey Hobbs'
p312
I1
sS'Saeed Ahmed'
p313
I2
sS'Shelby lin Erdman'
p314
I1
sS'Kathy Quiano and Jason Hanna'
p315
I1
sS'Aminu Abubakr and Ben Brumfield'
p316
I1
sS'Michael Pearson'
p317
I2
sS'John Malathronas for CNN'
p318
I1
sS'Ed Payne'
p319
I5
sS'Paul Cruickshank'
p320
I2
sS'Josh Levs'
p321
I11
sS'Mairi Mackay'
p322
I1
saccollections
defaultdict
p323
(c__builtin__
list
p324
tp325
Rp326
g2
(lp327
Vhttp://www.cnn.com/2014/12/27/world/asia/airasia-missing-plane/index.html
p328
asg3
(lp329
Vhttp://www.cnn.com/2015/01/23/world/obama-india-trip-personal-essay/index.html
p330
asg4
(lp331
Vhttp://www.cnn.com/2014/12/01/world/meast/egypt-mubarak-trial/index.html
p332
asg5
(lp333
Vhttp://www.cnn.com/2015/01/15/politics/cia-twitter-russian/index.html
p334
asg6
(lp335
Vhttp://www.cnn.com/2014/12/02/world/africa/kenya-attack/index.html
p336
asg7
(lp337
Vhttp://www.cnn.com/2015/01/01/world/asia/kashmir-violence/index.html
p338
asg8
(lp339
Vhttp://www.cnn.com/2014/12/01/world/meast/iraq-ghost-soldiers/index.html
p340
asg9
(lp341
Vhttp://www.cnn.com/2015/01/13/world/kouachi-brothers-radicalization/index.html
p342
aVhttp://www.cnn.com/2015/01/12/europe/paris-terror-suspects-al-qaeda-ties/index.html
p343
asg10
(lp344
Vhttp://www.cnn.com/2014/12/01/world/asia/hong-kong-protest-joshua-wong-hunger-strike/index.html
p345
asg11
(lp346
Vhttp://www.cnn.com/2014/12/04/justice/new-york-grand-jury-chokehold/index.html
p347
asg12
(lp348
Vhttp://www.cnn.com/2014/12/27/world/meast/syria-moscow-talks/index.html
p349
aVhttp://www.cnn.com/2014/12/27/world/meast/egypt-exodus-ban/index.html
p350
aVhttp://www.cnn.com/2014/12/25/world/europe/pope-christmas/index.html
p351
aVhttp://www.cnn.com/2014/12/01/world/ebola-update/index.html
p352
asg13
(lp353
Vhttp://www.cnn.com/2015/01/31/middleeast/isis-fighting/index.html
p354
aVhttp://www.cnn.com/2015/01/30/middleeast/isis-hostage-strategy/index.html
p355
aVhttp://www.cnn.com/2015/01/30/middleeast/isis-attack/index.html
p356
aVhttp://www.cnn.com/2015/01/29/europe/italy-poland-auschwitz-claim/index.html
p357
aVhttp://www.cnn.com/2015/01/29/middleeast/who-is-jordan-pilot-isis-hostage/index.html
p358
aVhttp://www.cnn.com/2015/01/29/africa/ebola-virus/index.html
p359
aVhttp://www.cnn.com/2015/01/27/americas/argentina-intelligence-shakeup/index.html
p360
aVhttp://www.cnn.com/2015/01/27/europe/uk-russia-litvinenko-death/index.html
p361
aVhttp://www.cnn.com/2015/01/24/europe/ukraine-crisis/index.html
p362
aVhttp://www.cnn.com/2015/01/24/middleeast/saudi-arabia-royals-obama/index.html
p363
aVhttp://www.cnn.com/2015/01/23/middleeast/yemen-whos-in-charge/index.html
p364
aVhttp://www.cnn.com/2015/01/23/middleeast/feat-egypt-king-tutankhamun-beard/index.html
p365
aVhttp://www.cnn.com/2015/01/23/middleeast/saudi-arabia-king-abdullah-death/index.html
p366
aVhttp://www.cnn.com/2015/01/22/europe/prince-andrew-sex-abuse-allegations/index.html
p367
aVhttp://www.cnn.com/2015/01/22/world/yemen-violence/index.html
p368
aVhttp://www.cnn.com/2015/01/22/europe/ukraine-conflict/index.html
p369
aVhttp://www.cnn.com/2015/01/21/europe/europe-terror-threat/index.html
p370
aVhttp://www.cnn.com/2015/01/21/world/yemen-violence/index.html
p371
aVhttp://www.cnn.com/2015/01/20/europe/europe-terror-threat/index.html
p372
aVhttp://www.cnn.com/2015/01/20/world/yemen-violence/index.html
p373
aVhttp://www.cnn.com/2015/01/17/africa/malawi-flooding/index.html
p374
aVhttp://www.cnn.com/2015/01/16/europe/france-charlie-hebdo-attacks/index.html
p375
aVhttp://www.cnn.com/2015/01/16/europe/europe-terrorism-threat/index.html
p376
aVhttp://www.cnn.com/2015/01/15/africa/nigeria-boko-haram-images/index.html
p377
aVhttp://www.cnn.com/2015/01/14/middleeast/yemen-al-qaeda-arabian-peninsula/index.html
p378
aVhttp://www.cnn.com/2015/01/13/europe/france-anti-muslim-threats/index.html
p379
aVhttp://www.cnn.com/2015/01/09/europe/charlie-hebdo-paris-shooting/index.html
p380
aVhttp://www.cnn.com/2015/01/07/europe/charlie-hebdo-attack-summary/index.html
p381
aVhttp://www.cnn.com/2014/12/30/world/europe/uk-ebola/index.html
p382
aVhttp://www.cnn.com/2014/12/18/world/europe/spain-ebola-nurse/index.html
p383
aVhttp://www.cnn.com/2014/12/13/world/europe/uk-prince-george-pictures/index.html
p384
aVhttp://www.cnn.com/2014/12/12/travel/uk-london-airspace-closed/index.html
p385
aVhttp://www.cnn.com/2014/12/09/world/asia/korean-air-nuts-scandal/index.html
p386
aVhttp://www.cnn.com/2014/12/02/world/europe/spain-ebola-free/index.html
p387
asg14
(lp388
Vhttp://www.cnn.com/2014/12/25/world/asia/east-timor-stacey-addison/index.html
p389
asg15
(lp390
Vhttp://www.cnn.com/2015/01/19/opinion/parini-jindal-comments-muslims/index.html
p391
asg16
(lp392
Vhttp://www.cnn.com/2014/12/18/world/europe/serbian-crown-prince/index.html
p393
aVhttp://www.cnn.com/2014/12/05/sport/ebola-sierra-leone-heart-football/index.html
p394
asg17
(lp395
Vhttp://www.cnn.com/2014/12/08/world/meast/uae-us-mall-killing/index.html
p396
asg18
(lp397
Vhttp://www.cnn.com/2014/12/10/world/alice-in-wonderland-royal-ballet/index.html
p398
asg19
(lp399
Vhttp://www.cnn.com/2015/01/23/entertainment/black-keys-cancel-tour-feat/index.html
p400
aVhttp://www.cnn.com/2015/01/06/living/dog-abandoned-suitcase-scotland-feat/index.html
p401
aVhttp://www.cnn.com/2014/12/03/showbiz/gangnam-style-youtube/index.html
p402
asg20
(lp403
Vhttp://www.cnn.com/2014/12/27/world/asia/north-korea-the-interview-reaction/index.html
p404
asg21
(lp405
Vhttp://www.cnn.com/2014/12/10/business/body-password-cybersecurity/index.html
p406
asg22
(lp407
Vhttp://www.cnn.com/2014/12/05/world/asia/india-eye-camp-blinded/index.html
p408
aVhttp://www.cnn.com/2014/12/04/world/asia/india-sterilization-bicycle-pump/index.html
p409
asg23
(lp410
Vhttp://www.cnn.com/2015/01/20/world/cnnphotos-ukraine-river/index.html
p411
aVhttp://www.cnn.com/2015/01/20/travel/solar-impulse-route-announced/index.html
p412
aVhttp://www.cnn.com/2014/12/17/travel/public-transportation-ridership-increasing/index.html
p413
aVhttp://www.cnn.com/2014/12/11/travel/boeing-787-dreamliner-investigation-report/index.html
p414
asg24
(lp415
Vhttp://www.cnn.com/2015/01/28/asia/indonesia-australia-executions/index.html
p416
aVhttp://www.cnn.com/2015/01/25/asia/australia-day-prince-philip-knighthood/index.html
p417
aVhttp://www.cnn.com/2014/12/02/world/asia/china-uk-hong-kong-ban/index.html
p418
aVhttp://www.cnn.com/2014/11/30/world/asia/australia-baby-body-beach/index.html
p419
asg25
(lp420
Vhttp://www.cnn.com/2015/01/27/politics/obama-saudi-arabia-zakaria/index.html
p421
aVhttp://www.cnn.com/2015/01/23/politics/netanyahu-obama-snub-sours-relations/index.html
p422
asg26
(lp423
Vhttp://www.cnn.com/2015/01/27/asia/philippines-homeless-families-resort/index.html
p424
aVhttp://www.cnn.com/2015/01/26/world/philippines-maguindanao-milf-battle/index.html
p425
aVhttp://www.cnn.com/2015/01/23/world/saudi-arabia-abdullah-legacy-5-facts/index.html
p426
aVhttp://www.cnn.com/2015/01/22/world/myanmar-united-nations-wirathu/index.html
p427
aVhttp://www.cnn.com/2015/01/16/world/indonesia-drug-executions/index.html
p428
asg27
(lp429
Vhttp://www.cnn.com/2014/12/18/sport/golf/golf-bryan-brothers-trick-shots/index.html
p430
asg28
(lp431
Vhttp://www.cnn.com/2015/01/29/world/isis-japan-jordan-hostages/index.html
p432
aVhttp://www.cnn.com/2015/01/29/asia/malaysia-missing-mh370/index.html
p433
aVhttp://www.cnn.com/2015/01/28/tech/giant-planetary-ring-system/index.html
p434
aVhttp://www.cnn.com/2015/01/16/world/belgium-anti-terror-operation/index.html
p435
ag380
aVhttp://www.cnn.com/2015/01/08/europe/france-charlie-hebdo-attack-scene/index.html
p436
aVhttp://www.cnn.com/2015/01/03/world/asia/airasia-disaster/index.html
p437
aVhttp://www.cnn.com/2015/01/01/world/asia/north-korea-kim-talks/index.html
p438
aVhttp://www.cnn.com/2014/12/31/world/asia/airasia-missed-flight-fortunate-ones/index.html
p439
aVhttp://www.cnn.com/2014/12/19/world/meast/isis-opponents-malware-attack/index.html
p440
aVhttp://www.cnn.com/2014/12/18/travel/canada-ex-girlfriend-world-trip/index.html
p441
aVhttp://www.cnn.com/2014/12/10/world/europe/france-14-million-dollar-car/index.html
p442
aVhttp://www.cnn.com/2014/12/04/world/meast/yemen-u-s-hostage-video/index.html
p443
aVhttp://www.cnn.com/2014/12/03/world/meast/isis-iran-airstrikes-reports/index.html
p444
asg29
(lp445
Vhttp://www.cnn.com/2014/12/04/travel/adventure-travel-bucket-list/index.html
p446
asg30
(lp447
Vhttp://www.cnn.com/2014/12/23/world/asia/china-doctor-selfies/index.html
p448
aVhttp://www.cnn.com/2014/12/18/world/asia/china-aids-boy/index.html
p449
aVhttp://www.cnn.com/2014/12/16/world/asia/korean-nut-rage/index.html
p450
asg31
(lp451
Vhttp://www.cnn.com/2014/12/05/tech/innovation/nasa-orion-launch/index.html
p452
asg32
(lp453
Vhttp://www.cnn.com/2014/12/01/world/meast/us-fighter-jet-crashes/index.html
p454
asg33
(lp455
Vhttp://www.cnn.com/2014/12/10/world/meast/palestinian-official-dies/index.html
p456
asg34
(lp457
Vhttp://www.cnn.com/2015/01/29/asia/airasia-disaster/index.html
p458
aVhttp://www.cnn.com/2015/01/22/world/isis-korea-teenager/index.html
p459
aVhttp://www.cnn.com/2015/01/19/world/north-korea-defector-reaction/index.html
p460
aVhttp://www.cnn.com/2015/01/07/asia/kim-jong-un-birthday/index.html
p461
aVhttp://www.cnn.com/2014/12/17/world/europe/putin-conference-promotion/index.html
p462
aVhttp://www.cnn.com/2014/12/05/world/asia/philippines-typhoon-hagupit/index.html
p463
asg35
(lp464
Vhttp://www.cnn.com/2014/12/05/world/europe/france-holocaust-payments/index.html
p465
asg36
(lp466
Vhttp://www.cnn.com/2015/01/25/europe/soares-greece-elections/index.html
p467
asg37
(lp468
Vhttp://www.cnn.com/2015/01/21/world/china-shanghai-stampede/index.html
p469
aVhttp://www.cnn.com/2015/01/13/asia/china-iphone-smuggler/index.html
p470
aVhttp://www.cnn.com/2015/01/12/china/china-2015-look-ahead/index.html
p471
aVhttp://www.cnn.com/2015/01/11/travel/china-eastern-air-rage-2015/index.html
p472
aVhttp://www.cnn.com/2015/01/08/world/asia/china-jackie-chan-son/index.html
p473
aVhttp://www.cnn.com/2014/12/11/world/asia/china-burqa-ban/index.html
p474
aVhttp://www.cnn.com/2014/12/09/world/china-facebook/index.html
p475
aVhttp://www.cnn.com/2014/12/05/world/asia/china-zhou-yongkang/index.html
p476
asg38
(lp477
Vhttp://www.cnn.com/2015/01/29/africa/egypt-north-sinai-attack/index.html
p478
aVhttp://www.cnn.com/2014/12/29/world/meast/iraq-funeral-attack/index.html
p479
asg39
(lp480
Vhttp://www.cnn.com/2015/01/31/middleeast/isis-japan-jordan-hostages/index.html
p481
aVhttp://www.cnn.com/2015/01/14/africa/boko-haram-attack-nigeria/index.html
p482
aVhttp://www.cnn.com/2014/12/09/sport/football/brazil-pele-released/index.html
p483
asg40
(lp484
Vhttp://www.cnn.com/2013/12/12/travel/christmas-destinations-2013/index.html
p485
asg41
(lp486
Vhttp://www.cnn.com/2014/12/05/world/kiribati-atlantis/index.html
p487
asg42
(lp488
Vhttp://www.cnn.com/2015/01/22/europe/belgium-terror-recruiting/index.html
p489
aVhttp://www.cnn.com/2015/01/19/europe/europe-terror-threat/index.html
p490
aVhttp://www.cnn.com/2015/01/18/europe/europe-terrorism-threat/index.html
p491
aVhttp://www.cnn.com/2015/01/15/asia/china-trafficked-boy-reunited/index.html
p492
aVhttp://www.cnn.com/2014/11/30/world/asia/hong-kong-protests/index.html
p493
asg43
(lp494
Vhttp://www.cnn.com/2014/12/29/opinion/zelizer-hillary-clinton-needs-elizabeth-warren/index.html
p495
asg44
(lp496
Vhttp://www.cnn.com/2014/12/04/world/meast/uae-us-mall-killing/index.html
p497
asg45
(lp498
Vhttp://www.cnn.com/2014/09/19/business/eye-popping-street-art-p2p/index.html
p499
asg46
(lp500
Vhttp://www.cnn.com/2015/01/23/opinion/kofman-ukraine-new-agreement/index.html
p501
asg47
(lp502
Vhttp://www.cnn.com/2015/01/20/opinion/bergen-schneider-isis-ransom-new/index.html
p503
aVhttp://www.cnn.com/2015/01/13/opinion/bergen-islam-terrorism/index.html
p504
aVhttp://www.cnn.com/2014/12/07/opinion/bergen-al-qaeda-leader-role/index.html
p505
asg48
(lp506
Vhttp://www.cnn.com/2014/11/18/world/2014-cnn-hero-of-the-year-pen-farthing/index.html
p507
asg49
(lp508
Vhttp://www.cnn.com/2014/12/28/world/asia/airasia-families-of-passengers/index.html
p509
asg50
(lp510
Vhttp://www.cnn.com/2014/12/09/world/europe/spain-uber-court-ban/index.html
p511
asg51
(lp512
Vhttp://www.cnn.com/2015/01/14/world/isis-everything-you-need-to-know/index.html
p513
asg52
(lp514
Vhttp://www.cnn.com/2014/12/22/opinion/seymour-joe-cocker/index.html
p515
asg53
(lp516
Vhttp://www.cnn.com/2014/12/05/world/europe/uk-elgin-marbles-russia/index.html
p517
asg54
(lp518
Vhttp://www.cnn.com/2015/01/28/opinion/lister-bad-month-for-isis/index.html
p519
aVhttp://www.cnn.com/2015/01/19/europe/lister-antwerp-to-aleppo-jihad/index.html
p520
ag490
aVhttp://www.cnn.com/2014/12/10/world/senate-report-lister/index.html
p521
asg55
(lp522
Vhttp://www.cnn.com/2015/01/28/entertainment/jean-paul-manoux-voyeurism-arrest/index.html
p523
asg56
(lp524
g372
asg57
(lp525
Vhttp://www.cnn.com/2015/01/21/tech/wind-tree-arbre-a-vent/index.html
p526
asg58
(lp527
Vhttp://www.cnn.com/2015/01/21/opinion/kofi-annan-davos-op-ed/index.html
p528
asg59
(lp529
Vhttp://www.cnn.com/2015/01/16/world/yangtze-river-tug-boat-sinking/index.html
p530
aVhttp://www.cnn.com/2015/01/12/travel/new-york-london-record-flight-time/index.html
p531
aVhttp://www.cnn.com/2014/12/17/world/oxfam-2004-tsunami-report-ten-years-on/index.html
p532
aVhttp://www.cnn.com/2014/12/03/world/asia/china-transparency-international-corruption-2014/index.html
p533
asg60
(lp534
g509
asg61
(lp535
Vhttp://www.cnn.com/2015/01/21/travel/world-top-hotels-tripadvisor/index.html
p536
aVhttp://www.cnn.com/2014/12/25/travel/gallery/world-most-colorful-landscapes/index.html
p537
asg62
(lp538
Vhttp://www.cnn.com/2014/12/26/world/africa/somalia-violence/index.html
p539
aVhttp://www.cnn.com/2014/12/25/world/africa/somalia-violence/index.html
p540
aVhttp://www.cnn.com/2014/12/15/world/africa/somalia-violence/index.html
p541
asg63
(lp542
g382
asg64
(lp543
Vhttp://www.cnn.com/2015/01/21/opinion/gaming-addiction-risks/index.html
p544
asg65
(lp545
Vhttp://www.cnn.com/2014/12/23/world/africa/nigeria-boko-haram-leposo/index.html
p546
asg66
(lp547
g368
ag371
ag373
aVhttp://www.cnn.com/2015/01/19/world/yemen-palace-clashes/index.html
p548
aVhttp://www.cnn.com/2015/01/18/middleeast/syria-israeli-airstrike-hezbollah/index.html
p549
aVhttp://www.cnn.com/2015/01/17/world/yemen-abduction/index.html
p550
aVhttp://www.cnn.com/2015/01/14/europe/al-qaeda-attack-claim-analysis/index.html
p551
aVhttp://www.cnn.com/2015/01/05/middleeast/forgotten-in-aleppo/index.html
p552
aVhttp://www.cnn.com/2014/12/10/world/meast/nick-paton-walsh-reddit-ama/index.html
p553
aVhttp://www.cnn.com/2014/12/04/world/meast/syria-kobani-civilians/index.html
p554
aVhttp://www.cnn.com/2014/12/03/world/meast/syria-kobani-fighters/index.html
p555
asg67
(lp556
Vhttp://www.cnn.com/2014/12/24/opinion/lauder-when-christmas-was-against-law/index.html
p557
asg68
(lp558
Vhttp://www.cnn.com/2015/01/02/world/asia/hancocks-hospital-qz8501-remains/index.html
p559
aVhttp://www.cnn.com/2014/12/24/world/asia/remembering-sri-lanka-tsunami/index.html
p560
asg69
(lp561
Vhttp://www.cnn.com/2014/12/16/world/asia/australia-sydney-hostage-situation/index.html
p562
asg70
(lp563
Vhttp://www.cnn.com/2014/12/29/world/asia/airasia-missing-plane/index.html
p564
asg71
(lp565
Vhttp://www.cnn.com/2014/12/11/world/africa/nigeria-violence/index.html
p566
asg72
(lp567
g517
asg73
(lp568
g489
asg74
(lp569
Vhttp://www.cnn.com/2014/12/30/world/asia/mh370-and-airasia8501-families/index.html
p570
aVhttp://www.cnn.com/2014/12/29/travel/aviation-year-in-review/index.html
p571
ag564
ag328
aVhttp://www.cnn.com/2014/12/26/world/europe/ireland-life-support-ruling/index.html
p572
aVhttp://www.cnn.com/2014/12/23/sport/football/christmas-truce-football-match/index.html
p573
aVhttp://www.cnn.com/2014/12/20/world/asia/pakistan-taliban-deaths/index.html
p574
aVhttp://www.cnn.com/2014/12/15/us/san-diego-white-rhino-dead/index.html
p575
aVhttp://www.cnn.com/2014/12/07/us/uruguay-guantanamo-bay-transfers/index.html
p576
aVhttp://www.cnn.com/2014/12/07/world/asia/pakistan-al-qaeda-member-killed/index.html
p577
ag517
aVhttp://www.cnn.com/2014/12/05/world/americas/brazil-swastika-pool/index.html
p578
ag533
aVhttp://www.cnn.com/2014/11/28/world/asia/north-korea-leaders-aunt/index.html
p579
asg75
(lp580
Vhttp://www.cnn.com/2014/12/16/travel/best-destinations-2015/index.html
p581
asg76
(lp582
Vhttp://www.cnn.com/2014/12/23/business/tim-berners-lee-future-insights/index.html
p583
asg77
(lp584
Vhttp://www.cnn.com/2015/01/27/world/syria-israel-golan-heights/index.html
p585
ag422
aVhttp://www.cnn.com/2014/12/17/politics/cuba-alan-gross-deal/index.html
p586
asg78
(lp587
Vhttp://www.cnn.com/2014/11/30/sport/football/football-platini-picasso-world-cup/index.html
p588
asg79
(lp589
Vhttp://www.cnn.com/2014/12/18/world/europe/russia-putin-media-conference/index.html
p590
asg80
(lp591
Vhttp://www.cnn.com/2014/12/30/world/out-of-the-phone-instagram-photography/index.html
p592
aVhttp://www.cnn.com/2014/12/30/world/asia/pakistan-market-fire/index.html
p593
aVhttp://www.cnn.com/2014/12/29/world/europe/ireport-your-favorite-things-about-serbia/index.html
p594
aVhttp://www.cnn.com/2014/03/09/travel/tripadvisor-decoded/index.html
p595
ag499
aVhttp://www.cnn.com/2014/12/23/sport/rio-olympics-sailing-super-bug/index.html
p596
aVhttp://www.cnn.com/2014/12/22/tech/south-africa-space-ska/index.html
p597
aVhttp://www.cnn.com/2014/12/22/travel/best-safari-experiences/index.html
p598
ag448
aVhttp://www.cnn.com/2014/12/22/world/europe/pirot-carpets-serbia/index.html
p599
aVhttp://www.cnn.com/2014/12/22/world/africa/school-meals-the-new-gourmet-cuisine-in-tanzania/index.html
p600
aVhttp://www.cnn.com/2014/12/22/travel/aviation-in-2015/index.html
p601
aVhttp://www.cnn.com/2014/12/17/world/armin-van-buuren-heatbeat-andrew-rayel-facebook/index.html
p602
aVhttp://www.cnn.com/2014/12/17/travel/ultimate-heli-sport/index.html
p603
ag581
ag449
aVhttp://www.cnn.com/2014/12/16/travel/6-ways-to-do-nepal/index.html
p604
aVhttp://www.cnn.com/2014/12/17/travel/travel-trends-2015/index.html
p605
aVhttp://www.cnn.com/2014/12/15/world/europe/strawberry-tree-solar-charger/index.html
p606
aVhttp://www.cnn.com/2014/12/14/world/asia/nepal-eye-doctor/index.html
p607
ag450
ag541
aVhttp://www.cnn.com/2014/12/14/world/europe/turkey-media-crackdown/index.html
p608
ag406
ag398
aVhttp://www.cnn.com/2013/05/16/travel/world-medical-museums/index.html
p609
aVhttp://www.cnn.com/2014/12/09/world/africa/waging-war-on-skin-bleaching-chocho-cosmetics/index.html
p610
aVhttp://www.cnn.com/2014/12/02/business/good-as-gold/index.html
p611
aVhttp://www.cnn.com/2014/12/03/world/meast/yemen-blast/index.html
p612
aVhttp://www.cnn.com/2014/12/02/world/turner-prize-duncan-campbell/index.html
p613
aVhttp://www.cnn.com/2014/12/02/world/europe/tony-blair-christmas-card/index.html
p614
aVhttp://www.cnn.com/2014/12/01/sport/football/lionel-messi-cristiano-ronaldo-barcelona-real-madrid-ballon-dor-marketing-merchandise-facebook/index.html
p615
aVhttp://www.cnn.com/2014/12/01/world/asia/south-korea-fishing-boat/index.html
p616
aVhttp://www.cnn.com/2014/11/29/world/asia/nepal-gadhimai-ritual-slaughter/index.html
p617
asg81
(lp618
Vhttp://www.cnn.com/2014/12/01/world/meast/mideast-tensions/index.html
p619
asg82
(lp620
Vhttp://www.cnn.com/2014/12/12/world/meast/mideast-tensions/index.html
p621
asg83
(lp622
g571
asg84
(lp623
Vhttp://www.cnn.com/2015/01/29/travel/safest-cities-2015/index.html
p624
aVhttp://www.cnn.com/2015/01/27/travel/scariest-theme-park-rides/index.html
p625
aVhttp://www.cnn.com/2015/01/08/travel/most-punctual-airports-and-airlines/index.html
p626
aVhttp://www.cnn.com/2014/12/18/travel/ice-pancakes-scotland/index.html
p627
asg85
(lp628
Vhttp://www.cnn.com/2014/12/05/world/asia/chinese-official-arrested/index.html
p629
asg86
(lp630
Vhttp://www.cnn.com/2014/12/08/world/africa/south-africa-honeymoon-murder-trial/index.html
p631
asg87
(lp632
Vhttp://www.cnn.com/2014/12/08/world/asia/philippines-typhoon-hagupit-ruby/index.html
p633
asg88
(lp634
Vhttp://www.cnn.com/2014/12/10/world/africa/south-africa-oscar-pistorius-appeal/index.html
p635
aVhttp://www.cnn.com/2014/12/09/world/africa/south-africa-oscar-pistorius-appeal/index.html
p636
asg89
(lp637
Vhttp://www.cnn.com/2015/01/12/opinion/ghitis-murdoch-tweet-muslims/index.html
p638
asg90
(lp639
Vhttp://www.cnn.com/2015/01/29/world/paleolithic-skull-discovered-israel/index.html
p640
aVhttp://www.cnn.com/2015/01/29/world/isis-hostage-kenji-goto/index.html
p641
ag432
aVhttp://www.cnn.com/2015/01/28/africa/boko-haram-raids/index.html
p642
aVhttp://www.cnn.com/2015/01/24/europe/uk-ebola-nurse/index.html
p643
aVhttp://www.cnn.com/2015/01/23/middleeast/middle-east-country-breakdown/index.html
p644
aVhttp://www.cnn.com/2015/01/24/world/isis-japan-hostages/index.html
p645
aVhttp://www.cnn.com/2015/01/23/world/ukraine-crisis/index.html
p646
ag369
aVhttp://www.cnn.com/2015/01/21/europe/europe-reaction-no-go/index.html
p647
aVhttp://www.cnn.com/2015/01/21/middleeast/isis-japan-hostages/index.html
p648
aVhttp://www.cnn.com/2015/01/20/world/ransom-hostages/index.html
p649
aVhttp://www.cnn.com/2015/01/20/middleeast/isis-japan-hostages/index.html
p650
aVhttp://www.cnn.com/2015/01/15/world/pope-francis-punch/index.html
p651
aVhttp://www.cnn.com/2015/01/15/europe/kosher-grocery-employee-citizenship/index.html
p652
aVhttp://www.cnn.com/2015/01/14/asia/philippines-pope-francis-visit/index.html
p653
aVhttp://www.cnn.com/2015/01/13/europe/charlie-hebdo-france-attacks/index.html
p654
aVhttp://www.cnn.com/2015/01/11/europe/france-terror-suspects-connection/index.html
p655
ag380
aVhttp://www.cnn.com/2014/12/24/world/pope-christmas/index.html
p656
aVhttp://www.cnn.com/2014/12/23/world/asia/north-korea-internet/index.html
p657
aVhttp://www.cnn.com/2014/12/20/world/meast/isis-violence/index.html
p658
aVhttp://www.cnn.com/2014/12/12/world/meast/isis-justification-female-slaves/index.html
p659
aVhttp://www.cnn.com/2014/12/10/world/europe/monaco-royal-twins/index.html
p660
aVhttp://www.cnn.com/2014/12/10/us/hawaii-sailboat-found/index.html
p661
ag629
aVhttp://www.cnn.com/2014/12/03/world/meast/syria-isis/index.html
p662
asg91
(lp663
Vhttp://www.cnn.com/2014/12/15/opinion/gergen-confirm-new-surgeon-general-murthy/index.html
p664
asg92
(lp665
g575
asg93
(lp666
g607
asg94
(lp667
Vhttp://www.cnn.com/2015/01/08/asia/airasia-disaster/index.html
p668
aVhttp://www.cnn.com/2014/12/01/travel/japan-suntory-whisky-bible-award-winner/index.html
p669
asg95
(lp670
Vhttp://www.cnn.com/2015/01/28/entertainment/feat-we-are-the-world-30-years-where-are-they-now/index.html
p671
aVhttp://www.cnn.com/2015/01/23/us/feat-doomsday-clock-three-minutes-midnight/index.html
p672
aVhttp://www.cnn.com/2015/01/21/world/feat-x-rays-vesuvius-scrolls/index.html
p673
asg96
(lp674
Vhttp://www.cnn.com/2015/01/21/politics/isis-gaining-ground-in-yemen/index.html
p675
aVhttp://www.cnn.com/2015/01/21/middleeast/isis-hostages-jihadi-john/index.html
p676
asg97
(lp677
Vhttp://www.cnn.com/2015/01/26/middleeast/syria-kobani-fighting/index.html
p678
aVhttp://www.cnn.com/2015/01/25/asia/ukraine-russia-obama/index.html
p679
aVhttp://www.cnn.com/2015/01/21/europe/germany-pegida-hitler-pose-bild/index.html
p680
aVhttp://www.cnn.com/2015/01/19/americas/argentina-alberto-nisman-dead/index.html
p681
aVhttp://www.cnn.com/2015/01/13/us/egypt-student-atheist-jailed/index.html
p682
aVhttp://www.cnn.com/2014/12/10/world/time-person-of-the-year/index.html
p683
aVhttp://www.cnn.com/2014/12/07/world/meast/syria-israeli-airstrikes/index.html
p684
aVhttp://www.cnn.com/2014/11/30/world/meast/syria-raqqa-fighting/index.html
p685
asg98
(lp686
Vhttp://www.cnn.com/2014/12/08/politics/russian-flights-near-nato/index.html
p687
asg99
(lp688
Vhttp://www.cnn.com/2014/12/02/world/europe/italy-costa-concordia-trial/index.html
p689
asg100
(lp690
Vhttp://www.cnn.com/2015/01/22/world/thailand-yingluck-shinawatra-court/index.html
p691
asg101
(lp692
Vhttp://www.cnn.com/2015/01/12/world/canada-terrorism-arrests/index.html
p693
aVhttp://www.cnn.com/2014/12/23/world/europe/serbia-film-industry/index.html
p694
aVhttp://www.cnn.com/2014/12/17/world/europe/hip-belgrade-resilient-capital/index.html
p695
asg102
(lp696
Vhttp://www.cnn.com/2015/01/06/intl_travel/world-safest-airlines/index.html
p697
asg103
(lp698
Vhttp://www.cnn.com/2015/01/20/health/tapeworms-invade-brain/index.html
p699
aVhttp://www.cnn.com/2015/01/15/business/richest-women-in-each-region-of-the-world/index.html
p700
ag600
asg104
(lp701
Vhttp://www.cnn.com/2015/01/07/opinion/hertling-paris-attack/index.html
p702
asg105
(lp703
Vhttp://www.cnn.com/2014/12/09/us/william-kate-new-york-tour/index.html
p704
asg106
(lp705
Vhttp://www.cnn.com/2014/12/20/world/asia/australia-cairns-police-investigation/index.html
p706
asg107
(lp707
g573
aVhttp://www.cnn.com/2014/12/19/sport/fifa-garcia-report-decision/index.html
p708
asg108
(lp709
Vhttp://www.cnn.com/2014/12/22/world/europe/france-dijon-vehicle-attack/index.html
p710
asg109
(lp711
g576
asg110
(lp712
Vhttp://www.cnn.com/2014/12/18/world/asia/north-korea-hacker-network/index.html
p713
asg111
(lp714
Vhttp://www.cnn.com/2014/12/15/opinion/costello-women-beauty-smarts/index.html
p715
asg112
(lp716
Vhttp://www.cnn.com/2014/12/10/world/europe/migrant-deaths/index.html
p717
asg113
(lp718
Vhttp://www.cnn.com/2015/01/28/africa/alyssa-carter-save-the-rhinos/index.html
p719
aVhttp://www.cnn.com/2015/01/14/travel/gallery/exciting-architecture-new-buildings-2015/index.html
p720
ag602
asg114
(lp721
g609
asg115
(lp722
Vhttp://www.cnn.com/2015/01/14/opinion/kohn-offensive-cartoons/index.html
p723
asg116
(lp724
Vhttp://www.cnn.com/2014/12/26/world/asia/pakistan-militant-deaths/index.html
p725
asg117
(lp726
g358
aVhttp://www.cnn.com/2015/01/21/middleeast/saudi-beheading-video/index.html
p727
aVhttp://www.cnn.com/2015/01/15/middleeast/saudi-arabia-justice/index.html
p728
aVhttp://www.cnn.com/2014/12/29/world/meast/ayatollah-tweet-abdelaziz/index.html
p729
asg118
(lp730
Vhttp://www.cnn.com/2014/12/11/world/meast/palestinian-official-death/index.html
p731
aVhttp://www.cnn.com/2014/12/03/world/meast/israel-new-elections/index.html
p732
asg119
(lp733
Vhttp://www.cnn.com/2015/01/26/europe/greece-elections/index.html
p734
aVhttp://www.cnn.com/2015/01/12/europe/uk-ebola-nurse/index.html
p735
aVhttp://www.cnn.com/2014/12/29/world/europe/uk-gatwick-virgin/index.html
p736
aVhttp://www.cnn.com/2014/12/22/world/africa/ebola-outbreak-cdc/index.html
p737
aVhttp://www.cnn.com/2014/12/22/world/europe/uk-scotland-glasgow-crash/index.html
p738
aVhttp://www.cnn.com/2014/12/15/world/europe/russia-hrw-gay-report/index.html
p739
aVhttp://www.cnn.com/2014/12/01/world/europe/uk-prince-harry-secret/index.html
p740
asg120
(lp741
Vhttp://www.cnn.com/2014/12/14/opinion/schlumpf-pope-dogs-go-to-heaven-controversy/index.html
p742
asg121
(lp743
Vhttp://www.cnn.com/2014/12/17/world/asia/afghanistan-violence/index.html
p744
aVhttp://www.cnn.com/2014/12/13/world/asia/afghanistan-violence/index.html
p745
asg122
(lp746
Vhttp://www.cnn.com/2014/12/12/world/pope-francis-animals-heaven/index.html
p747
asg123
(lp748
g355
ag435
ag343
asg124
(lp749
Vhttp://www.cnn.com/2015/01/30/living/cuba-catholic-church/index.html
p750
asg125
(lp751
g389
asg126
(lp752
Vhttp://www.cnn.com/2014/12/12/world/europe/uk-cia-interrogation-report/index.html
p753
asg127
(lp754
Vhttp://www.cnn.com/2014/12/17/world/americas/cuba-who-are-released/index.html
p755
asg128
(lp756
g615
asg129
(lp757
Vhttp://www.cnn.com/2014/12/11/world/asia/afghanistan-violence/index.html
p758
asg130
(lp759
g616
asg131
(lp760
Vhttp://www.cnn.com/2014/12/07/world/americas/mexico-missing-student-id/index.html
p761
asg132
(lp762
Vhttp://www.cnn.com/2014/12/24/world/africa/nigeria-makoko-photograph-sulayman-afose/index.html
p763
aVhttp://www.cnn.com/2014/12/11/world/africa/kenya-railways-india/index.html
p764
aVhttp://www.cnn.com/2014/12/03/world/africa/gombe-chimps-jane-goodall-preservation/index.html
p765
asg133
(lp766
Vhttp://www.cnn.com/2015/01/09/world/muslims-react-charlie-hebdo-irpt/index.html
p767
asg134
(lp768
Vhttp://www.cnn.com/2014/12/30/world/asia/airasia-missing-plane/index.html
p769
asg135
(lp770
Vhttp://www.cnn.com/2015/01/13/world/french-jews/index.html
p771
asg136
(lp772
Vhttp://www.cnn.com/2015/01/19/asia/hindu-muslim-murder-india/index.html
p773
aVhttp://www.cnn.com/2014/12/26/world/asia/india-tribal-militant-attacks/index.html
p774
aVhttp://www.cnn.com/2014/12/07/world/asia/india-uber-alleged-rape/index.html
p775
asg137
(lp776
Vhttp://www.cnn.com/2014/12/18/world/how-did-edm-get-so-popular/index.html
p777
asg138
(lp778
Vhttp://www.cnn.com/2015/01/09/health/ebola-vaccine-progress/index.html
p779
asg139
(lp780
Vhttp://www.cnn.com/2014/12/15/opinion/mara-south-sudan-war-a-year-old/index.html
p781
asg140
(lp782
Vhttp://www.cnn.com/2014/12/17/world/asia/pakistan-peshawar-school-attack/index.html
p783
asg141
(lp784
Vhttp://www.cnn.com/2014/12/07/world/asia/philippines-typhoon-hagupit-ruby/index.html
p785
asg142
(lp786
Vhttp://www.cnn.com/2014/12/18/opinion/borger-obama-superman-and-clark-kent/index.html
p787
asg143
(lp788
Vhttp://www.cnn.com/2014/12/09/world/europe/germany-france-oradour/index.html
p789
asg144
(lp790
Vhttp://www.cnn.com/2015/01/12/politics/obama-kerry-paris/index.html
p791
aVhttp://www.cnn.com/2015/01/11/politics/obama-kerry-paris/index.html
p792
aVhttp://www.cnn.com/2014/12/11/politics/john-brennan-defends-cia-after-torture-report/index.html
p793
asg145
(lp794
g394
asg146
(lp795
Vhttp://www.cnn.com/2014/12/23/world/amanpour-bradlee-maazel-remembered/index.html
p796
asg147
(lp797
Vhttp://www.cnn.com/2014/12/29/tech/innovation/nasa-jpl-robot-darpa/index.html
p798
asg148
(lp799
g485
asg149
(lp800
Vhttp://www.cnn.com/2014/11/30/world/africa/rhino-poaching-kruger-national-park/index.html
p801
asg150
(lp802
g493
asg151
(lp803
Vhttp://www.cnn.com/2014/12/22/opinion/obeidallah-police-killing/index.html
p804
asg152
(lp805
Vhttp://www.cnn.com/2015/01/15/world/charlie-hebdo-web-of-terror/index.html
p806
ag513
aVhttp://www.cnn.com/2014/12/09/world/meast/yemen-botched-hostage-rescue/index.html
p807
asg153
(lp808
Vhttp://www.cnn.com/2014/12/14/world/meast/syria-arab-idol/index.html
p809
asg154
(lp810
Vhttp://www.cnn.com/2014/12/23/justice/al-qaeda-underwear-bomber/index.html
p811
asg155
(lp812
Vhttp://www.cnn.com/2015/01/20/travel/british-airways-first-class-filthy/index.html
p813
aVhttp://www.cnn.com/2014/12/11/travel/australia-travelers-bizarre-requests/index.html
p814
asg156
(lp815
Vhttp://www.cnn.com/2014/12/28/opinion/abend-missing-airasia-plane-radar/index.html
p816
asg157
(lp817
Vhttp://www.cnn.com/2014/12/14/world/europe/sweden-russia-planes-near-collision/index.html
p818
asg158
(lp819
Vhttp://www.cnn.com/2014/12/24/world/meast/iraq-violence/index.html
p820
asg159
(lp821
Vhttp://www.cnn.com/2014/12/24/world/asia/korean-air-nuts-scandal/index.html
p822
asg160
(lp823
Vhttp://www.cnn.com/2014/12/08/world/meast/yemen-u-s-hostage-killed/index.html
p824
asg161
(lp825
g732
asg162
(lp826
Vhttp://www.cnn.com/2015/01/29/world/mexico-explosion/index.html
p827
ag432
aVhttp://www.cnn.com/2015/01/28/world/isis-japan-jordan-hostages/index.html
p828
ag734
aVhttp://www.cnn.com/2015/01/25/europe/greece-elections/index.html
p829
ag366
ag371
aVhttp://www.cnn.com/2015/01/20/asia/airasia-disaster-flight-speed/index.html
p830
aVhttp://www.cnn.com/2015/01/15/world/belgium-anti-terror-operation/index.html
p831
aVhttp://www.cnn.com/2015/01/14/europe/charlie-hebdo-france-attacks/index.html
p832
aVhttp://www.cnn.com/2015/01/12/europe/charlie-hebdo-france-attacks/index.html
p833
aVhttp://www.cnn.com/2015/01/11/europe/charlie-hebdo-paris-shooting/index.html
p834
aVhttp://www.cnn.com/2014/12/03/world/americas/cuba-alan-gross/index.html
p835
asg163
(lp836
Vhttp://www.cnn.com/2014/12/04/tech/innovation/nasa-orion-launch/index.html
p837
asg164
(lp838
Vhttp://www.cnn.com/2014/12/03/world/meast/uae-us-mall-killing/index.html
p839
asg165
(lp840
Vhttp://www.cnn.com/2014/12/03/world/meast/qatar-us-couple/index.html
p841
asg166
(lp842
Vhttp://www.cnn.com/2014/12/02/world/meast/israel-new-elections/index.html
p843
asg167
(lp844
Vhttp://www.cnn.com/2014/12/08/world/asia/mike-chinoy-north-korea-veteran-pow/index.html
p845
asg168
(lp846
Vhttp://www.cnn.com/2014/12/01/world/africa/nigeria-boko-haram-attack/index.html
p847
asg169
(lp848
g827
ag360
ag828
aVhttp://www.cnn.com/2015/01/26/us/asteroid-flyby/index.html
p849
aVhttp://www.cnn.com/2015/01/22/americas/argentina-prosecutor-alberto-nisman-death/index.html
p850
aVhttp://www.cnn.com/2015/01/20/americas/argentina-alberto-nisman-dead/index.html
p851
ag831
aVhttp://www.cnn.com/2015/01/14/us/international-space-station-emergency/index.html
p852
aVhttp://www.cnn.com/2015/01/13/europe/france-charlie-hebdo-attack-trail/index.html
p853
aVhttp://www.cnn.com/2015/01/06/americas/guatemala-genocide-trial/index.html
p854
asg170
(lp855
Vhttp://www.cnn.com/2015/01/24/world/japan-hostage-reaction-ripley/index.html
p856
aVhttp://www.cnn.com/2015/01/22/asia/japan-naval-ship-grounded/index.html
p857
aVhttp://www.cnn.com/2015/01/22/middleeast/isis-japan-hostages/index.html
p858
ag648
aVhttp://www.cnn.com/2014/12/24/world/asia/china-north-korea-hack/index.html
p859
asg171
(lp860
g614
asg172
(lp861
Vhttp://www.cnn.com/2014/12/05/world/europe/rave-work/index.html
p862
asg173
(lp863
g550
aVhttp://www.cnn.com/2015/01/14/middleeast/isis-video-boy-execution-russian-spies/index.html
p864
aVhttp://www.cnn.com/2015/01/10/world/france-paris-who-were-terror-victims/index.html
p865
aVhttp://www.cnn.com/2015/01/10/world/france-woman-suspect/index.html
p866
aVhttp://www.cnn.com/2015/01/09/world/france-woman-suspect/index.html
p867
aVhttp://www.cnn.com/2014/12/24/us/national-zoo-wire-shocks-panda-cub/index.html
p868
aVhttp://www.cnn.com/2014/12/17/world/americas/cuba-u-s-relationship-history/index.html
p869
asg174
(lp870
Vhttp://www.cnn.com/2014/12/04/world/nelson-mandela-death-anniversary/index.html
p871
asg175
(lp872
Vhttp://www.cnn.com/2015/01/15/africa/nigeria-military-families-boko-haram/index.html
p873
ag377
aVhttp://www.cnn.com/2014/12/18/world/asia/pakistan-terror-school-visit/index.html
p874
asg176
(lp875
Vhttp://www.cnn.com/2013/05/15/world/asia/seamstress-rubble-bangladesh/index.html
p876
asg177
(lp877
Vhttp://www.cnn.com/2014/12/16/opinion/lemmon-pakistan-school-horror/index.html
p878
asg178
(lp879
Vhttp://www.cnn.com/2015/01/07/opinion/france-gunfire-poirier/index.html
p880
asg179
(lp881
Vhttp://www.cnn.com/2015/01/19/asia/airasia-disaster-cockpit-recording/index.html
p882
asg180
(lp883
Vhttp://www.cnn.com/2014/12/22/world/asia/hong-kong-tycoon-sentence/index.html
p884
aVhttp://www.cnn.com/2014/12/19/world/asia/hong-kong-kwok-brothers-verdict/index.html
p885
asg181
(lp886
g845
asg182
(lp887
Vhttp://www.cnn.com/2015/01/26/africa/nigeria-boko-haram/index.html
p888
aVhttp://www.cnn.com/2015/01/19/world/wealth-inequality/index.html
p889
aVhttp://www.cnn.com/2015/01/18/world/philippines-pope-visit/index.html
p890
aVhttp://www.cnn.com/2015/01/17/middleeast/palestinians-icc-inquiry/index.html
p891
aVhttp://www.cnn.com/2015/01/12/africa/boko-haram-deadliest-attack/index.html
p892
ag834
ag783
aVhttp://www.cnn.com/2014/12/05/world/africa/nelson-mandela-tributes/index.html
p893
ag579
asg183
(lp894
Vhttp://www.cnn.com/2014/12/20/world/europe/ukraine-conflict/index.html
p895
asg184
(lp896
Vhttp://www.cnn.com/2014/12/02/world/meast/lebanon-isis-leader-family/index.html
p897
asg185
(lp898
Vhttp://www.cnn.com/2014/12/08/world/meast/lebanon-blast/index.html
p899
asg186
(lp900
Vhttp://www.cnn.com/2015/01/15/health/antibiotic-arctic-bacteria-pharmasea/index.html
p901
asg187
(lp902
Vhttp://www.cnn.com/2014/12/14/world/americas/nobel-ceremony-interrupted-adan-cortes/index.html
p903
asg188
(lp904
Vhttp://www.cnn.com/2015/01/19/tech/fundi-bots-robots-uganda/index.html
p905
asg189
(lp906
Vhttp://www.cnn.com/2014/12/11/world/africa/somalia-drinking-water-deaths/index.html
p907
aVhttp://www.cnn.com/2014/12/03/world/africa/somalia-violence/index.html
p908
asg190
(lp909
Vhttp://www.cnn.com/2015/01/22/tech/mci-proton-therapy/index.html
p910
aVhttp://www.cnn.com/2015/01/21/tech/mci-lego-worm/index.html
p911
aVhttp://www.cnn.com/2015/01/16/tech/vindskip-wind-powered-container-ship/index.html
p912
asg191
(lp913
Vhttp://www.cnn.com/2014/12/22/world/pope-francis-curia/index.html
p914
asg192
(lp915
g828
aVhttp://www.cnn.com/2015/01/27/asia/airasia-disaster/index.html
p916
ag734
aVhttp://www.cnn.com/2015/01/26/asia/isis-japan-hostages-up-to-speed/index.html
p917
aVhttp://www.cnn.com/2015/01/25/asia/airasia-disaster/index.html
p918
aVhttp://www.cnn.com/2015/01/25/world/isis-japan-hostages/index.html
p919
ag829
aVhttp://www.cnn.com/2015/01/23/middleeast/who-is-saudi-arabia-king-salman/index.html
p920
aVhttp://www.cnn.com/2015/01/23/middleeast/saudi-arabia-new-king-challenges/index.html
p921
ag858
ag676
aVhttp://www.cnn.com/2015/01/21/americas/brazil-surfer-ricardo-dos-santos-death/index.html
p922
ag882
aVhttp://www.cnn.com/2015/01/20/africa/kenya-playground-children-tear-gassed/index.html
p923
ag650
aVhttp://www.cnn.com/2015/01/19/asia/philippines-pope-street-children/index.html
p924
ag376
aVhttp://www.cnn.com/2015/01/15/asia/airasia-disaster/index.html
p925
aVhttp://www.cnn.com/2015/01/13/africa/mozambique-homebrew-poisoning/index.html
p926
aVhttp://www.cnn.com/2015/01/13/asia/airasia-disaster/index.html
p927
aVhttp://www.cnn.com/2015/01/11/asia/airasia-disaster/index.html
p928
ag381
aVhttp://www.cnn.com/2015/01/09/europe/paris-charlie-hebdo-attack-jesuisahmed/index.html
p929
ag668
ag437
aVhttp://www.cnn.com/2015/01/01/world/asia/airasia-disaster/index.html
p930
ag769
ag564
ag328
aVhttp://www.cnn.com/2014/12/22/world/asia/north-korea-us-sony-hack-who-says-what/index.html
p931
ag710
aVhttp://www.cnn.com/2014/12/18/world/asia/things-that-annoy-north-korea/index.html
p932
aVhttp://www.cnn.com/2014/12/16/world/asia/australia-sydney-siege-victims/index.html
p933
aVhttp://www.cnn.com/2014/12/16/world/asia/australia-sydney-cafe-siege-questions/index.html
p934
aVhttp://www.cnn.com/2014/12/12/world/asia/korean-air-nuts-scandal/index.html
p935
aVhttp://www.cnn.com/2014/12/10/world/asia/hong-kong-protests/index.html
p936
aVhttp://www.cnn.com/2014/12/09/world/asia/hong-kong-protests/index.html
p937
aVhttp://www.cnn.com/2014/12/04/world/asia/philippines-super-typhoon-hagupit/index.html
p938
aVhttp://www.cnn.com/2014/12/03/world/meast/isis-baghdadi-family/index.html
p939
aVhttp://www.cnn.com/2014/12/03/world/asia/hong-kong-protests/index.html
p940
ag897
asg193
(lp941
Vhttp://www.cnn.com/2014/12/25/world/meast/israel-molotov-cocktail-attack/index.html
p942
asg194
(lp943
g651
aVhttp://www.cnn.com/2015/01/13/living/muslims-respond-hebdo/index.html
p944
aVhttp://www.cnn.com/2015/01/10/living/questions-islam/index.html
p945
aVhttp://www.cnn.com/2014/12/22/living/real-santa-claus/index.html
p946
asg195
(lp947
g343
asg196
(lp948
g487
asg197
(lp949
Vhttp://www.cnn.com/2014/12/12/world/cia-cable-iraq-war/index.html
p950
asg198
(lp951
Vhttp://www.cnn.com/2014/12/21/opinion/louis-police-shooting/index.html
p952
asg199
(lp953
Vhttp://www.cnn.com/2014/12/24/sport/shooting-seema-tomar-india-trap-shooter/index.html
p954
asg200
(lp955
g539
asg201
(lp956
Vhttp://www.cnn.com/2014/11/30/world/europe/turkey-pope-visit/index.html
p957
asg202
(lp958
Vhttp://www.cnn.com/2015/01/23/opinion/prince-andrew-point/index.html
p959
asg203
(lp960
Vhttp://www.cnn.com/2014/12/07/world/meast/uae-mall-killing/index.html
p961
asg204
(lp962
Vhttp://www.cnn.com/2014/11/30/world/americas/colombia-general-farc-hostage-released/index.html
p963
asg205
(lp964
Vhttp://www.cnn.com/2015/01/29/world/uk-russia-bombers-intercepted/index.html
p965
ag585
aVhttp://www.cnn.com/2015/01/27/world/isis-japan-jordan-hostages/index.html
p966
ag645
ag646
aVhttp://www.cnn.com/2015/01/21/world/cameroon-boko-haram-german-hostage/index.html
p967
ag373
ag550
ag435
aVhttp://www.cnn.com/2015/01/14/world/airasia-disaster/index.html
p968
ag866
ag332
asg206
(lp969
Vhttp://www.cnn.com/2015/01/27/asia/india-obama-modi-look-back/index.html
p970
aVhttp://www.cnn.com/2014/12/10/world/asia/india-putin/index.html
p971
asg207
(lp972
Vhttp://www.cnn.com/2014/12/11/world/asia/afghanistan-french-school-attack/index.html
p973
asg208
(lp974
Vhttp://www.cnn.com/2015/01/27/travel/jetstar-feng-shui-matchmaker/index.html
p975
aVhttp://www.cnn.com/2015/01/27/travel/south-korea-dmz-eco-park/index.html
p976
aVhttp://www.cnn.com/2015/01/26/travel/taiwan-sex-park/index.html
p977
aVhttp://www.cnn.com/2014/12/18/travel/china-air-rage-emergency-exits/index.html
p978
aVhttp://www.cnn.com/2014/12/05/travel/most-instagrammed-places-2014/index.html
p979
asg209
(lp980
g578
asg210
(lp981
g664
asg211
(lp982
Vhttp://www.cnn.com/2014/12/09/world/asia/indonesian-maid-trial/index.html
p983
asg212
(lp984
Vhttp://www.cnn.com/2015/01/18/world/feat-miss-lebanon-miss-israel-picture/index.html
p985
aVhttp://www.cnn.com/2014/12/28/world/europe/italy-greece-ferry-fire/index.html
p986
aVhttp://www.cnn.com/2014/12/14/world/feat-miss-world-2014/index.html
p987
aVhttp://www.cnn.com/2014/11/29/living/ferguson-protest-hug/index.html
p988
aVhttp://www.cnn.com/2014/11/30/tech/chernobyl-drone-footage/index.html
p989
asg213
(lp990
g380
aVhttp://www.cnn.com/2014/12/18/politics/u-s-air-strikes-kill-3-high-level-isis-leaders/index.html
p991
asg214
(lp992
Vhttp://www.cnn.com/2014/12/02/world/europe/richard-iii-dna-hair-eyes/index.html
p993
asg215
(lp994
Vhttp://www.cnn.com/2014/12/15/travel/afrika-burn-south-africa/index.html
p995
asg216
(lp996
Vhttp://www.cnn.com/2014/12/18/world/asia/australia-cairns-police-investigation/index.html
p997
asg217
(lp998
g847
asg218
(lp999
Vhttp://www.cnn.com/2015/01/13/middleeast/paris-kosher-store-funeral/index.html
p1000
ag380
asg219
(lp1001
g577
asg220
(lp1002
Vhttp://www.cnn.com/2014/12/22/us/muhammad-ali-hospital-pneumonia/index.html
p1003
asg221
(lp1004
g603
asg222
(lp1005
Vhttp://www.cnn.com/2014/12/03/world/europe/norway-russia-fighter-jet-close-call/index.html
p1006
asg223
(lp1007
Vhttp://www.cnn.com/2014/12/12/world/asia/india-young-people-suicides/index.html
p1008
asg224
(lp1009
Vhttp://www.cnn.com/2015/01/15/opinion/obeidallah-al-qaeda-hypocrisy/index.html
p1010
asg225
(lp1011
Vhttp://www.cnn.com/2014/12/26/opinion/zakaria-moonshots-technology/index.html
p1012
aVhttp://www.cnn.com/2014/12/19/opinion/zakaria-cuba-embargo-change/index.html
p1013
asg226
(lp1014
Vhttp://www.cnn.com/2015/01/27/politics/michelle-obama-shakes-hands-saudi-king/index.html
p1015
asg227
(lp1016
g594
ag599
ag606
asg228
(lp1017
g598
asg229
(lp1018
Vhttp://www.cnn.com/2014/12/18/world/meast/yemen-violence/index.html
p1019
asg230
(lp1020
Vhttp://www.cnn.com/2014/10/26/opinion/aslan-islam-doesnt-cause-terrorism/index.html
p1021
asg231
(lp1022
g601
asg232
(lp1023
Vhttp://www.cnn.com/2014/12/02/travel/botswana-electric-safari/index.html
p1024
asg233
(lp1025
g604
asg234
(lp1026
Vhttp://www.cnn.com/2015/01/13/world/cnnphotos-destino-central-american-migration/index.html
p1027
aVhttp://www.cnn.com/2015/01/12/americas/cuba-prisoners-release/index.html
p1028
ag381
ag436
ag347
aVhttp://www.cnn.com/2014/12/03/world/climate-change-report/index.html
p1029
asg235
(lp1030
Vhttp://www.cnn.com/2015/01/12/living/cadbury-creme-egg-recipe-change-feat/index.html
p1031
asg236
(lp1032
Vhttp://www.cnn.com/2015/01/26/china/china-mother-sold-baby/index.html
p1033
aVhttp://www.cnn.com/2015/01/19/world/taiwan-gamer-death/index.html
p1034
aVhttp://www.cnn.com/2015/01/16/world/china-food-safety/index.html
p1035
ag492
asg237
(lp1036
g586
asg238
(lp1037
Vhttp://www.cnn.com/2014/12/16/world/asia/pakistan-peshawar-school-attack/index.html
p1038
asg239
(lp1039
g596
asg240
(lp1040
Vhttp://www.cnn.com/2014/12/11/world/africa/jihadist-leader-killed-mali/index.html
p1041
asg241
(lp1042
Vhttp://www.cnn.com/2015/01/20/asia/tiger-population-india/index.html
p1043
aVhttp://www.cnn.com/2015/01/11/europe/paris-march-social/index.html
p1044
asg242
(lp1045
Vhttp://www.cnn.com/2014/12/15/world/asia/australia-sydney-hostage-situation/index.html
p1046
asg243
(lp1047
g592
asg244
(lp1048
Vhttp://www.cnn.com/2015/01/26/entertainment/feat-miss-universe-winner/index.html
p1049
aVhttp://www.cnn.com/2014/12/18/tech/feat-2014-memes-hashtags/index.html
p1050
asg245
(lp1051
Vhttp://www.cnn.com/2015/01/26/europe/spain-greek-f16-crash/index.html
p1052
aVhttp://www.cnn.com/2015/01/24/europe/spain-terror-arrests/index.html
p1053
ag511
asg246
(lp1054
g610
asg247
(lp1055
Vhttp://www.cnn.com/2014/12/02/world/meast/qatar-us-couple/index.html
p1056
asg248
(lp1057
Vhttp://www.cnn.com/2014/12/24/world/asia/india-tribal-militant-attacks/index.html
p1058
aVhttp://www.cnn.com/2014/12/10/world/asia/india-uber-rape-case/index.html
p1059
aVhttp://www.cnn.com/2014/12/02/world/asia/india-actress-assaulted/index.html
p1060
asg249
(lp1061
Vhttp://www.cnn.com/2014/12/23/opinion/sperry-architects-torture/index.html
p1062
asg250
(lp1063
Vhttp://www.cnn.com/2014/12/06/world/meast/yemen-u-s-hostage-killed/index.html
p1064
asg251
(lp1065
g574
asg252
(lp1066
Vhttp://www.cnn.com/2014/12/16/world/meast/yemen-violence/index.html
p1067
ag612
asg253
(lp1068
Vhttp://www.cnn.com/2014/12/26/tech/playstation-xbox-problems/index.html
p1069
aVhttp://www.cnn.com/2014/12/25/world/europe/putin-cancels-holiday-vacation/index.html
p1070
asg254
(lp1071
g787
asg255
(lp1072
Vhttp://www.cnn.com/2014/12/16/travel/feat-new-national-park-sites/index.html
p1073
aVhttp://www.cnn.com/2014/12/02/travel/tripadvisor-destinations-on-the-rise/index.html
p1074
asg256
(lp1075
Vhttp://www.cnn.com/2015/01/26/tech/gallery/nasa-year-of-light-photos-cosmos/index.html
p1076
aVhttp://www.cnn.com/2015/01/23/tech/lightbombing-sola-peter-melicott/index.html
p1077
asg257
(lp1078
g597
asg258
(lp1079
g503
asg259
(lp1080
g540
asg260
(lp1081
Vhttp://www.cnn.com/2015/01/22/world/australia-frilled-shark/index.html
p1082
asg261
(lp1083
Vhttp://www.cnn.com/2015/01/24/politics/saudi-king-succession-washington/index.html
p1084
asg262
(lp1085
g676
asg263
(lp1086
g393
asg264
(lp1087
Vhttp://www.cnn.com/2014/12/18/opinion/ulukaya-syria-refugee-crisis/index.html
p1088
asg265
(lp1089
Vhttp://www.cnn.com/2015/01/27/entertainment/benedict-cumberbatch-colored-apology/index.html
p1090
aVhttp://www.cnn.com/2015/01/22/middleeast/iran-ayatollah-letter/index.html
p1091
aVhttp://www.cnn.com/2015/01/20/europe/the-sun-page-3/index.html
p1092
aVhttp://www.cnn.com/2015/01/19/asia/yemen-explainer/index.html
p1093
ag513
ag1000
aVhttp://www.cnn.com/2015/01/08/europe/charlie-hebdo-cartoons/index.html
p1094
asg266
(lp1095
g408
asg267
(lp1096
g940
asg268
(lp1097
Vhttp://www.cnn.com/2014/11/30/world/asia/india-muscle-village/index.html
p1098
asg269
(lp1099
Vhttp://www.cnn.com/2014/12/15/world/asia/philippines-transgender-slaying/index.html
p1100
asg270
(lp1101
g446
asg271
(lp1102
Vhttp://www.cnn.com/2014/12/30/world/palestinian-statehood-draft-vote/index.html
p1103
aVhttp://www.cnn.com/2014/12/15/world/meast/un-syria-conflict/index.html
p1104
asg272
(lp1105
Vhttp://www.cnn.com/2015/01/20/world/ukraine-russia/index.html
p1106
aVhttp://www.cnn.com/2014/12/16/world/europe/chance-russia-gay-rights/index.html
p1107
asg273
(lp1108
g595
asg274
(lp1109
Vhttp://www.cnn.com/2014/12/19/world/asia/pakistan-taliban-deaths/index.html
p1110
asg275
(lp1111
Vhttp://www.cnn.com/2015/01/12/opinion/miller-paris-terror/index.html
p1112
asg276
(lp1113
Vhttp://www.cnn.com/2015/01/31/world/venezuela-tourism-campaign/index.html
p1114
aVhttp://www.cnn.com/2015/01/24/world/isis-jordan-sajida-al-rishawi/index.html
p1115
aVhttp://www.cnn.com/2015/01/11/world/charlie-hebdo-paris-march/index.html
p1116
ag865
ag380
aVhttp://www.cnn.com/2015/01/09/world/france-shooting-hostage-scene/index.html
p1117
aVhttp://www.cnn.com/2015/01/07/world/france-magazine-attack-victims/index.html
p1118
asg277
(lp1119
g664
asg278
(lp1120
Vhttp://www.cnn.com/2015/01/12/europe/germany-anti-islam-marches/index.html
p1121
asg279
(lp1122
Vhttp://www.cnn.com/2014/12/18/world/europe/uk-sex-abuse-murder-investigation/index.html
p1123
asg280
(lp1124
Vhttp://www.cnn.com/2014/12/09/world/europe/uk-police-threat/index.html
p1125
asg281
(lp1126
Vhttp://www.cnn.com/2015/01/26/sport/queen-elizabeth-ii-buy-woman-who-has-everything/index.html
p1127
aVhttp://www.cnn.com/2015/01/14/business/failing-good-career/index.html
p1128
ag700
asg282
(lp1129
g961
asg283
(lp1130
Vhttp://www.cnn.com/2014/12/26/world/americas/mexico-violence/index.html
p1131
asg284
(lp1132
Vhttp://www.cnn.com/2014/12/03/world/europe/ukraine-nuclear-power-plant/index.html
p1133
asg285
(lp1134
Vhttp://www.cnn.com/2014/12/14/living/feat-121314-birthdays/index.html
p1135
asg286
(lp1136
g617
asg287
(lp1137
g849
asg288
(lp1138
Vhttp://www.cnn.com/2015/01/22/africa/gallery/sudan-stories-from-refugees-to-photojournalists/index.html
p1139
aVhttp://www.cnn.com/2015/01/20/africa/mozambique-art-from-weapons-and-rubble/index.html
p1140
asg289
(lp1141
Vhttp://www.cnn.com/2014/12/06/world/asia/philippines-typhoon-hagupit-ruby/index.html
p1142
asg290
(lp1143
Vhttp://www.cnn.com/2014/11/30/world/meast/qatar-u-s-couple-appeal/index.html
p1144
asg291
(lp1145
g608
asg292
(lp1146
Vhttp://www.cnn.com/2015/01/22/world/saudi-blogger-flogging/index.html
p1147
aVhttp://www.cnn.com/2015/01/21/middleeast/israel-attack/index.html
p1148
ag482
aVhttp://www.cnn.com/2015/01/14/world/israel-newspaper-female-leaders-photo-altered/index.html
p1149
ag1116
ag1118
asg293
(lp1150
Vhttp://www.cnn.com/2015/01/25/opinion/drexler-paris-fashion-shock/index.html
p1151
asg294
(lp1152
Vhttp://www.cnn.com/2014/12/26/opinion/scoblete-ai-human-threat/index.html
p1153
asg295
(lp1154
Vhttp://www.cnn.com/2014/12/02/world/europe/pope-modern-day-slavery/index.html
p1155
asg296
(lp1156
Vhttp://www.cnn.com/2015/01/26/asia/indonesia-airasia-transportation-minister/index.html
p1157
asg297
(lp1158
g613
asg298
(lp1159
Vhttp://www.cnn.com/2015/01/23/europe/paris-banlieues/index.html
p1160
asg299
(lp1161
Vhttp://www.cnn.com/2014/12/09/world/africa/desmond-tutu-cancer/index.html
p1162
asg300
(lp1163
g593
asg301
(lp1164
g438
ag338
ag930
ag439
ag1103
ag382
ag769
aVhttp://www.cnn.com/2014/12/28/world/asia/airasia-mh370-differences/index.html
p1165
ag509
ag798
aVhttp://www.cnn.com/2014/12/29/world/5-things/index.html
p1166
ag736
ag479
ag729
ag986
ag349
ag404
ag350
ag1131
ag1012
ag539
ag774
ag725
ag1069
ag1070
ag763
ag954
ag942
ag389
ag351
ag540
ag868
aVhttp://www.cnn.com/2014/12/25/world/asia/hong-kong-millions-cash-grab/index.html
p1167
ag656
ag560
ag820
ag859
ag822
ag694
ag1058
ag811
aVhttp://www.cnn.com/2014/12/23/world/europe/france-attacks-security/index.html
p1168
ag737
ag546
ag884
ag657
ag738
ag931
ag914
ag710
aVhttp://www.cnn.com/2014/12/21/us/canada-border-shooting/index.html
p1169
ag895
aVhttp://www.cnn.com/2014/12/21/world/asia/north-korea-us-sony/index.html
p1170
ag706
ag658
ag708
ag1050
ag430
ag874
ag997
ag1110
ag978
ag885
ag440
ag777
ag1073
ag383
ag1019
ag991
ag713
ag1123
ag627
aVhttp://www.cnn.com/2014/12/18/world/africa/nigeria-boko-haram-kidnapping/index.html
p1171
ag590
ag932
ag532
ag462
ag441
ag485
ag869
ag755
ag695
ag562
ag744
ag783
ag903
ag1135
ag1067
ag933
ag1107
ag1038
ag934
ag1104
ag739
aVhttp://www.cnn.com/2014/12/12/world/asia/indonesia-landslide/index.html
p1172
ag1100
ag384
ag1046
ag818
ag987
ag809
ag745
ag474
ag659
ag566
ag747
ag385
ag621
ag753
ag935
ag1008
ag950
ag793
ag1059
ag973
ag1041
ag907
ag758
ag764
ag814
ag936
aVhttp://www.cnn.com/2014/12/10/world/meast/iraq-violence/index.html
p1173
ag456
ag971
ag483
ag937
ag1125
ag465
ag511
ag704
ag661
ag683
ag521
ag442
ag717
ag635
ag789
ag1162
ag475
ag636
ag899
ag862
ag476
ag824
ag633
ag396
ag761
ag684
ag631
ag785
ag961
ag775
ag1064
ag1142
ag871
ag629
ag979
ag463
ag893
ag408
ag452
ag409
ag443
ag497
ag837
ag938
ag347
ag1029
ag669
ag1006
ag402
ag841
ag732
ag839
ag662
ag939
ag765
ag908
ag940
ag444
ag1133
ag835
ag352
ag1056
ag843
ag1155
ag993
aVhttp://www.cnn.com/2014/12/01/world/meast/syria-refugees-u-n-food/index.html
p1174
ag897
ag876
ag689
ag418
ag336
ag1060
ag345
ag454
ag801
ag957
ag740
ag340
ag419
ag619
ag847
ag588
ag988
ag1098
ag332
ag963
ag989
ag685
ag493
ag1144
asg302
(lp1175
g579
asg303
(lp1176
g572
asg304
(lp1177
g827
aVhttp://www.cnn.com/2015/01/28/americas/mexico-missing-students/index.html
p1178
asg305
(lp1179
g1167
asg306
(lp1180
g1052
asg307
(lp1181
Vhttp://www.cnn.com/2015/01/13/opinion/whitson-saudi-flogging/index.html
p1182
asg308
(lp1183
g570
ag372
ag490
ag491
ag832
ag654
ag833
aVhttp://www.cnn.com/2015/01/12/europe/charlie-hebdo-france-attacks-up-to-speed/index.html
p1184
ag396
ag785
asg309
(lp1185
g1169
asg310
(lp1186
g997
asg311
(lp1187
Vhttp://www.cnn.com/2015/01/22/politics/us-officials-say-6000-isis-fighters-killed-in-battles/index.html
p1188
aVhttp://www.cnn.com/2015/01/20/politics/pentagon-in-position-to-evacuate-u-s-embassy-in-yemen/index.html
p1189
ag687
ag1064
asg312
(lp1190
g611
asg313
(lp1191
Vhttp://www.cnn.com/2015/01/23/asia/isis-japan-hostages/index.html
p1192
ag1166
asg314
(lp1193
g957
asg315
(lp1194
g1172
asg316
(lp1195
g1171
asg317
(lp1196
g1165
ag1046
asg318
(lp1197
Vhttp://www.cnn.com/2014/12/05/travel/ceausescu-trail-bucharest-romania/index.html
p1198
asg319
(lp1199
g1148
aVhttp://www.cnn.com/2015/01/15/europe/charlie-hebdo-france-attacks/index.html
p1200
ag1118
aVhttp://www.cnn.com/2015/01/08/europe/charlie-hebdo-attack-timeline/index.html
p1201
ag1173
asg320
(lp1202
g490
ag831
asg321
(lp1203
Vhttp://www.cnn.com/2015/01/28/world/mideast-golan/index.html
p1204
ag373
aVhttp://www.cnn.com/2015/01/14/world/turkey-charlie-hebdo/index.html
p1205
ag832
ag833
ag1201
aVhttp://www.cnn.com/2015/01/06/tech/nasa-pillars-creation/index.html
p1206
ag1168
ag1170
ag621
ag1174
asg322
(lp1207
g605
asa.